target datalayout = "e-m:e-p270:32:32-p271:32:32-p272:64:64-i64:64-i128:128-f80:128-n8:16:32:64-S128"
target triple = "x86_64-pc-linux-gnu"

%"class.Eigen::Matrix" = type { %"class.Eigen::PlainObjectBase" }
%"class.Eigen::PlainObjectBase" = type { %"class.Eigen::DenseStorage" }
%"class.Eigen::DenseStorage" = type { %"struct.Eigen::internal::plain_array" }
%"struct.Eigen::internal::plain_array" = type { [16 x double] }
%struct.ident_t = type { i32, i32, i32, i32, ptr }
%"class.Eigen::Matrix.298" = type { %"class.Eigen::PlainObjectBase.299" }
%"class.Eigen::PlainObjectBase.299" = type { %"class.Eigen::DenseStorage.306" }
%"class.Eigen::DenseStorage.306" = type { %"struct.Eigen::internal::plain_array.307" }
%"struct.Eigen::internal::plain_array.307" = type { [36 x double] }
%"struct.std::_Vector_base.496" = type { %"struct.std::_Vector_base<open3d::apps::offline_reconstruction::MatchingResult, std::allocator<open3d::apps::offline_reconstruction::MatchingResult>>::_Vector_impl" }
%"struct.std::_Vector_base<open3d::apps::offline_reconstruction::MatchingResult, std::allocator<open3d::apps::offline_reconstruction::MatchingResult>>::_Vector_impl" = type { %"struct.std::_Vector_base<open3d::apps::offline_reconstruction::MatchingResult, std::allocator<open3d::apps::offline_reconstruction::MatchingResult>>::_Vector_impl_data" }
%"struct.std::_Vector_base<open3d::apps::offline_reconstruction::MatchingResult, std::allocator<open3d::apps::offline_reconstruction::MatchingResult>>::_Vector_impl_data" = type { ptr, ptr, ptr }
%"class.open3d::apps::offline_reconstruction::MatchingResult" = type { ptr, i32, i32, i8, [15 x i8], %"class.Eigen::Matrix", %"class.Eigen::Matrix.298" }

@1 = private unnamed_addr constant %struct.ident_t { i32 0, i32 514, i32 0, i32 22, ptr @0 }, align 8

; Function Attrs: mustprogress nounwind ssp uwtable
define linkonce_odr dso_local noundef nonnull align 16 dereferenceable(448) ptr @_ZNSt6vectorIN6open3d4apps22offline_reconstruction14MatchingResultESaIS3_EEixEm(ptr noundef nonnull align 8 dereferenceable(24) %0, i64 noundef %1) #1 comdat align 2 {
  %3 = alloca ptr, align 8
  %4 = alloca i64, align 8
  store ptr %0, ptr %3, align 8, !tbaa !2158
  store i64 %1, ptr %4, align 8, !tbaa !31
  %5 = load ptr, ptr %3, align 8
  %6 = getelementptr inbounds nuw %"struct.std::_Vector_base.496", ptr %5, i32 0, i32 0
  %7 = getelementptr inbounds nuw %"struct.std::_Vector_base<open3d::apps::offline_reconstruction::MatchingResult, std::allocator<open3d::apps::offline_reconstruction::MatchingResult>>::_Vector_impl_data", ptr %6, i32 0, i32 0
  %8 = load ptr, ptr %7, align 8, !tbaa !2164
  %9 = load i64, ptr %4, align 8, !tbaa !31
  %10 = getelementptr inbounds nuw %"class.open3d::apps::offline_reconstruction::MatchingResult", ptr %8, i64 %9
  ret ptr %10
}

; Function Attrs: mustprogress nounwind ssp uwtable
define linkonce_odr dso_local noundef i64 @_ZNKSt6vectorIN6open3d4apps22offline_reconstruction14MatchingResultESaIS3_EE4sizeEv(ptr noundef nonnull align 8 dereferenceable(24) %0) #1 comdat align 2 {
  %2 = alloca ptr, align 8
  store ptr %0, ptr %2, align 8, !tbaa !2158
  %3 = load ptr, ptr %2, align 8
  %4 = getelementptr inbounds nuw %"struct.std::_Vector_base.496", ptr %3, i32 0, i32 0
  %5 = getelementptr inbounds nuw %"struct.std::_Vector_base<open3d::apps::offline_reconstruction::MatchingResult, std::allocator<open3d::apps::offline_reconstruction::MatchingResult>>::_Vector_impl_data", ptr %4, i32 0, i32 1
  %6 = load ptr, ptr %5, align 8, !tbaa !2162
  %7 = getelementptr inbounds nuw %"struct.std::_Vector_base.496", ptr %3, i32 0, i32 0
  %8 = getelementptr inbounds nuw %"struct.std::_Vector_base<open3d::apps::offline_reconstruction::MatchingResult, std::allocator<open3d::apps::offline_reconstruction::MatchingResult>>::_Vector_impl_data", ptr %7, i32 0, i32 0
  %9 = load ptr, ptr %8, align 8, !tbaa !2164
  %10 = ptrtoint ptr %6 to i64
  %11 = ptrtoint ptr %9 to i64
  %12 = sub i64 %10, %11
  %13 = sdiv exact i64 %12, 448
  ret i64 %13
}

; Function Attrs: alwaysinline norecurse nounwind ssp uwtable
define internal void @_ZN6open3d4apps22offline_reconstruction22ReconstructionPipeline15RefineFragmentsEv.omp_outlined(ptr noalias noundef %0, ptr noalias noundef %1, ptr noundef nonnull align 8 dereferenceable(24) %2, ptr noundef %3, ptr noundef nonnull align 8 dereferenceable(24) %4) #35 personality ptr @__gxx_personality_v0 {
  %6 = alloca ptr, align 8
  %7 = alloca ptr, align 8
  %8 = alloca ptr, align 8
  %9 = alloca ptr, align 8
  %10 = alloca ptr, align 8
  %11 = alloca i32, align 4
  %12 = alloca i32, align 4
  %13 = alloca i32, align 4
  %14 = alloca i32, align 4
  %15 = alloca i32, align 4
  %16 = alloca i32, align 4
  %17 = alloca i32, align 4
  %18 = alloca i32, align 4
  %19 = alloca i32, align 4
  %20 = alloca i32, align 4
  %21 = alloca i32, align 4
  store ptr %0, ptr %6, align 8, !tbaa !94
  store ptr %1, ptr %7, align 8, !tbaa !94
  store ptr %2, ptr %8, align 8, !tbaa !2158
  store ptr %3, ptr %9, align 8, !tbaa !1274
  store ptr %4, ptr %10, align 8, !tbaa !160
  %22 = load ptr, ptr %8, align 8, !tbaa !2158
  %23 = load ptr, ptr %9, align 8, !tbaa !1274
  %24 = load ptr, ptr %10, align 8, !tbaa !160
  call void @llvm.lifetime.start.p0(i64 4, ptr %11) #7
  call void @llvm.lifetime.start.p0(i64 4, ptr %12) #7
  %25 = call noundef i64 @_ZNKSt6vectorIN6open3d4apps22offline_reconstruction14MatchingResultESaIS3_EE4sizeEv(ptr noundef nonnull align 8 dereferenceable(24) %22) #7
  %26 = trunc i64 %25 to i32
  store i32 %26, ptr %12, align 4, !tbaa !122
  call void @llvm.lifetime.start.p0(i64 4, ptr %13) #7
  %27 = load i32, ptr %12, align 4, !tbaa !122
  %28 = sub nsw i32 %27, 0
  %29 = sdiv i32 %28, 1
  %30 = sub nsw i32 %29, 1
  store i32 %30, ptr %13, align 4, !tbaa !122
  call void @llvm.lifetime.start.p0(i64 4, ptr %14) #7
  store i32 0, ptr %14, align 4, !tbaa !122
  call void @llvm.lifetime.end.p0(i64 4, ptr %14) #7
  %31 = load i32, ptr %12, align 4, !tbaa !122
  %32 = icmp slt i32 0, %31
  br i1 %32, label %33, label %80

33:                                               ; preds = %5
  call void @llvm.lifetime.start.p0(i64 4, ptr %15) #7
  store i32 0, ptr %15, align 4, !tbaa !122
  call void @llvm.lifetime.start.p0(i64 4, ptr %16) #7
  %34 = load i32, ptr %13, align 4, !tbaa !122
  store i32 %34, ptr %16, align 4, !tbaa !122
  call void @llvm.lifetime.start.p0(i64 4, ptr %17) #7
  store i32 1, ptr %17, align 4, !tbaa !122
  call void @llvm.lifetime.start.p0(i64 4, ptr %18) #7
  store i32 0, ptr %18, align 4, !tbaa !122
  call void @llvm.lifetime.start.p0(i64 4, ptr %19) #7
  %35 = load ptr, ptr %6, align 8
  %36 = load i32, ptr %35, align 4, !tbaa !122
  call void @__kmpc_for_static_init_4(ptr @1, i32 %36, i32 34, ptr %18, ptr %15, ptr %16, ptr %17, i32 1, i32 1)
  %37 = load i32, ptr %16, align 4, !tbaa !122
  %38 = load i32, ptr %13, align 4, !tbaa !122
  %39 = icmp sgt i32 %37, %38
  br i1 %39, label %40, label %42

40:                                               ; preds = %33
  %41 = load i32, ptr %13, align 4, !tbaa !122
  br label %44

42:                                               ; preds = %33
  %43 = load i32, ptr %16, align 4, !tbaa !122
  br label %44

44:                                               ; preds = %42, %40
  %45 = phi i32 [ %41, %40 ], [ %43, %42 ]
  store i32 %45, ptr %16, align 4, !tbaa !122
  %46 = load i32, ptr %15, align 4, !tbaa !122
  store i32 %46, ptr %11, align 4, !tbaa !122
  br label %47

47:                                               ; preds = %73, %44
  %48 = load i32, ptr %11, align 4, !tbaa !122
  %49 = load i32, ptr %16, align 4, !tbaa !122
  %50 = icmp sle i32 %48, %49
  br i1 %50, label %52, label %51

51:                                               ; preds = %47
  br label %76

52:                                               ; preds = %47
  %53 = load i32, ptr %11, align 4, !tbaa !122
  %54 = mul nsw i32 %53, 1
  %55 = add nsw i32 0, %54
  store i32 %55, ptr %19, align 4, !tbaa !122
  call void @llvm.lifetime.start.p0(i64 4, ptr %20) #7
  %56 = load i32, ptr %19, align 4, !tbaa !122
  %57 = sext i32 %56 to i64
  %58 = call noundef nonnull align 16 dereferenceable(448) ptr @_ZNSt6vectorIN6open3d4apps22offline_reconstruction14MatchingResultESaIS3_EEixEm(ptr noundef nonnull align 8 dereferenceable(24) %22, i64 noundef %57) #7
  %59 = getelementptr inbounds nuw %"class.open3d::apps::offline_reconstruction::MatchingResult", ptr %58, i32 0, i32 1
  %60 = load i32, ptr %59, align 8, !tbaa !2142
  store i32 %60, ptr %20, align 4, !tbaa !122
  call void @llvm.lifetime.start.p0(i64 4, ptr %21) #7
  %61 = load i32, ptr %19, align 4, !tbaa !122
  %62 = sext i32 %61 to i64
  %63 = call noundef nonnull align 16 dereferenceable(448) ptr @_ZNSt6vectorIN6open3d4apps22offline_reconstruction14MatchingResultESaIS3_EEixEm(ptr noundef nonnull align 8 dereferenceable(24) %22, i64 noundef %62) #7
  %64 = getelementptr inbounds nuw %"class.open3d::apps::offline_reconstruction::MatchingResult", ptr %63, i32 0, i32 2
  %65 = load i32, ptr %64, align 4, !tbaa !2152
  store i32 %65, ptr %21, align 4, !tbaa !122
  %66 = load i32, ptr %20, align 4, !tbaa !122
  %67 = load i32, ptr %21, align 4, !tbaa !122
  %68 = load i32, ptr %19, align 4, !tbaa !122
  %69 = sext i32 %68 to i64
  %70 = call noundef nonnull align 16 dereferenceable(448) ptr @_ZNSt6vectorIN6open3d4apps22offline_reconstruction14MatchingResultESaIS3_EEixEm(ptr noundef nonnull align 8 dereferenceable(24) %22, i64 noundef %69) #7
  invoke void @_ZN6open3d4apps22offline_reconstruction22ReconstructionPipeline18RefineFragmentPairERKSt6vectorINSt7__cxx1112basic_stringIcSt11char_traitsIcESaIcEEESaIS9_EEiiRNS1_14MatchingResultE(ptr noundef nonnull align 8 dereferenceable(52) %23, ptr noundef nonnull align 8 dereferenceable(24) %24, i32 noundef %66, i32 noundef %67, ptr noundef nonnull align 16 dereferenceable(448) %70)
          to label %71 unwind label %81

71:                                               ; preds = %52
  call void @llvm.lifetime.end.p0(i64 4, ptr %21) #7
  call void @llvm.lifetime.end.p0(i64 4, ptr %20) #7
  br label %72

72:                                               ; preds = %71
  br label %73

73:                                               ; preds = %72
  %74 = load i32, ptr %11, align 4, !tbaa !122
  %75 = add nsw i32 %74, 1
  store i32 %75, ptr %11, align 4, !tbaa !122
  br label %47

76:                                               ; preds = %51
  br label %77

77:                                               ; preds = %76
  %78 = load ptr, ptr %6, align 8
  %79 = load i32, ptr %78, align 4, !tbaa !122
  call void @__kmpc_for_static_fini(ptr @1, i32 %79)
  call void @llvm.lifetime.end.p0(i64 4, ptr %19) #7
  call void @llvm.lifetime.end.p0(i64 4, ptr %18) #7
  call void @llvm.lifetime.end.p0(i64 4, ptr %17) #7
  call void @llvm.lifetime.end.p0(i64 4, ptr %16) #7
  call void @llvm.lifetime.end.p0(i64 4, ptr %15) #7
  br label %80

80:                                               ; preds = %77, %5
  call void @llvm.lifetime.end.p0(i64 4, ptr %13) #7
  call void @llvm.lifetime.end.p0(i64 4, ptr %12) #7
  call void @llvm.lifetime.end.p0(i64 4, ptr %11) #7
  ret void

81:                                               ; preds = %52
  %82 = landingpad { ptr, i32 }
          catch ptr null
  %83 = extractvalue { ptr, i32 } %82, 0
  call void @__clang_call_terminate(ptr %83) #40
  unreachable
}