; Function Attrs: alwaysinline norecurse nounwind ssp uwtable
define internal void @_ZN6open3d4apps22offline_reconstruction22ReconstructionPipeline15RefineFragmentsEv.omp_outlined(ptr noalias noundef readonly captures(none) %0, ptr noalias readnone captures(none) %1, ptr noundef nonnull readonly align 8 captures(none) dereferenceable(24) %2, ptr noundef %3, ptr noundef nonnull align 8 dereferenceable(24) %4) #35 personality ptr @__gxx_personality_v0 {
  %6 = alloca i32, align 4
  %7 = alloca i32, align 4
  %8 = alloca i32, align 4
  %9 = alloca i32, align 4
  %10 = getelementptr inbounds nuw i8, ptr %2, i64 8
  %11 = load ptr, ptr %10, align 8, !tbaa !1273
  %12 = load ptr, ptr %2, align 8, !tbaa !1276
  %13 = ptrtoint ptr %11 to i64
  %14 = ptrtoint ptr %12 to i64
  %15 = sub i64 %13, %14
  %16 = sdiv exact i64 %15, 448
  %17 = trunc i64 %16 to i32
  %18 = icmp sgt i32 %17, 0
  br i1 %18, label %19, label %35

19:                                               ; preds = %5
  %20 = add nsw i32 %17, -1
  call void @llvm.lifetime.start.p0(i64 4, ptr nonnull %6) #33
  store i32 0, ptr %6, align 4, !tbaa !29
  call void @llvm.lifetime.start.p0(i64 4, ptr nonnull %7) #33
  store i32 %20, ptr %7, align 4, !tbaa !29
  call void @llvm.lifetime.start.p0(i64 4, ptr nonnull %8) #33
  store i32 1, ptr %8, align 4, !tbaa !29
  call void @llvm.lifetime.start.p0(i64 4, ptr nonnull %9) #33
  store i32 0, ptr %9, align 4, !tbaa !29
  %21 = load i32, ptr %0, align 4, !tbaa !29
  call void @__kmpc_for_static_init_4(ptr nonnull @1, i32 %21, i32 34, ptr nonnull %9, ptr nonnull %6, ptr nonnull %7, ptr nonnull %8, i32 1, i32 1)
  %22 = load i32, ptr %7, align 4, !tbaa !29
  %23 = call i32 @llvm.smin.i32(i32 %22, i32 %20)
  store i32 %23, ptr %7, align 4, !tbaa !29
  %24 = load i32, ptr %6, align 4, !tbaa !29
  %.not17 = icmp sgt i32 %24, %23
  br i1 %.not17, label %._crit_edge, label %.lr.ph.preheader

.lr.ph.preheader:                                 ; preds = %19
  %25 = sext i32 %24 to i64
  br label %.lr.ph

.lr.ph:                                           ; preds = %.lr.ph.preheader, %32
  %indvars.iv = phi i64 [ %25, %.lr.ph.preheader ], [ %indvars.iv.next, %32 ]
  %26 = load ptr, ptr %2, align 8, !tbaa !1276
  %27 = getelementptr inbounds nuw %"class.open3d::apps::offline_reconstruction::MatchingResult", ptr %26, i64 %indvars.iv
  %28 = getelementptr inbounds nuw i8, ptr %27, i64 8
  %29 = load i32, ptr %28, align 8, !tbaa !1278
  %30 = getelementptr inbounds nuw i8, ptr %27, i64 12
  %31 = load i32, ptr %30, align 4, !tbaa !1288
  invoke void @_ZN6open3d4apps22offline_reconstruction22ReconstructionPipeline18RefineFragmentPairERKSt6vectorINSt7__cxx1112basic_stringIcSt11char_traitsIcESaIcEEESaIS9_EEiiRNS1_14MatchingResultE(ptr noundef nonnull align 8 dereferenceable(52) %3, ptr noundef nonnull align 8 dereferenceable(24) %4, i32 noundef %29, i32 noundef %31, ptr noundef nonnull align 16 dereferenceable(448) %27)
          to label %32 unwind label %36

32:                                               ; preds = %.lr.ph
  %indvars.iv.next = add nsw i64 %indvars.iv, 1
  %33 = load i32, ptr %7, align 4, !tbaa !29
  %34 = sext i32 %33 to i64
  %.not.not = icmp slt i64 %indvars.iv, %34
  br i1 %.not.not, label %.lr.ph, label %._crit_edge

._crit_edge:                                      ; preds = %32, %19
  call void @__kmpc_for_static_fini(ptr nonnull @1, i32 %21)
  call void @llvm.lifetime.end.p0(i64 4, ptr nonnull %9) #33
  call void @llvm.lifetime.end.p0(i64 4, ptr nonnull %8) #33
  call void @llvm.lifetime.end.p0(i64 4, ptr nonnull %7) #33
  call void @llvm.lifetime.end.p0(i64 4, ptr nonnull %6) #33
  br label %35

35:                                               ; preds = %._crit_edge, %5
  ret void

36:                                               ; preds = %.lr.ph
  %37 = landingpad { ptr, i32 }
          catch ptr null
  %38 = extractvalue { ptr, i32 } %37, 0
  call void @__clang_call_terminate(ptr %38) #44
  unreachable
}